; Function Attrs: cold nounwind optsize uwtable
define internal void @uninit(ptr noundef readonly captures(none) %0) #0 {
  %2 = getelementptr inbounds nuw i8, ptr %0, i64 72
  %3 = load ptr, ptr %2, align 8, !tbaa !4
  %4 = getelementptr inbounds nuw i8, ptr %3, i64 32
  tail call void @ff_formats_unref(ptr noundef nonnull %4) #8
  %5 = getelementptr inbounds nuw i8, ptr %3, i64 40
  tail call void @ff_formats_unref(ptr noundef nonnull %5) #8
  %6 = getelementptr inbounds nuw i8, ptr %3, i64 48
  tail call void @ff_formats_unref(ptr noundef nonnull %6) #8
  ret void
}